target datalayout = "e-m:e-p270:32:32-p271:32:32-p272:64:64-i64:64-i128:128-f80:128-n8:16:32:64-S128"
target triple = "x86_64-pc-linux-gnu"

%struct.Qureg = type { i32, i32, i32, i64, i64, i32, i32, %struct.ComplexArray, %struct.ComplexArray, %struct.ComplexArray, ptr, ptr, ptr, ptr, ptr, ptr }
%struct.ComplexArray = type { ptr, ptr }

; Function Attrs: nounwind uwtable
define i32 @areUniqueQubits(ptr noundef %0, i32 noundef %1) #0 {
  %3 = alloca i32, align 4
  %4 = alloca ptr, align 8
  %5 = alloca i32, align 4
  %6 = alloca i64, align 8
  %7 = alloca i64, align 8
  %8 = alloca i32, align 4
  %9 = alloca i32, align 4
  store ptr %0, ptr %4, align 8, !tbaa !30
  store i32 %1, ptr %5, align 4, !tbaa !9
  call void @llvm.lifetime.start.p0(i64 8, ptr %6) #7
  store i64 0, ptr %6, align 8, !tbaa !32
  call void @llvm.lifetime.start.p0(i64 8, ptr %7) #7
  call void @llvm.lifetime.start.p0(i64 4, ptr %8) #7
  store i32 0, ptr %8, align 4, !tbaa !9
  br label %10

10:                                               ; preds = %32, %2
  %11 = load i32, ptr %8, align 4, !tbaa !9
  %12 = load i32, ptr %5, align 4, !tbaa !9
  %13 = icmp slt i32 %11, %12
  br i1 %13, label %15, label %14

14:                                               ; preds = %10
  store i32 2, ptr %9, align 4
  br label %35

15:                                               ; preds = %10
  %16 = load ptr, ptr %4, align 8, !tbaa !30
  %17 = load i32, ptr %8, align 4, !tbaa !9
  %18 = sext i32 %17 to i64
  %19 = getelementptr inbounds i32, ptr %16, i64 %18
  %20 = load i32, ptr %19, align 4, !tbaa !9
  %21 = zext i32 %20 to i64
  %22 = shl i64 1, %21
  store i64 %22, ptr %7, align 8, !tbaa !32
  %23 = load i64, ptr %6, align 8, !tbaa !32
  %24 = load i64, ptr %7, align 8, !tbaa !32
  %25 = and i64 %23, %24
  %26 = icmp ne i64 %25, 0
  br i1 %26, label %27, label %28

27:                                               ; preds = %15
  store i32 0, ptr %3, align 4
  store i32 1, ptr %9, align 4
  br label %35

28:                                               ; preds = %15
  %29 = load i64, ptr %7, align 8, !tbaa !32
  %30 = load i64, ptr %6, align 8, !tbaa !32
  %31 = or i64 %30, %29
  store i64 %31, ptr %6, align 8, !tbaa !32
  br label %32

32:                                               ; preds = %28
  %33 = load i32, ptr %8, align 4, !tbaa !9
  %34 = add nsw i32 %33, 1
  store i32 %34, ptr %8, align 4, !tbaa !9
  br label %10

35:                                               ; preds = %27, %14
  call void @llvm.lifetime.end.p0(i64 4, ptr %8) #7
  %36 = load i32, ptr %9, align 4
  switch i32 %36, label %38 [
    i32 2, label %37
  ]

37:                                               ; preds = %35
  store i32 1, ptr %3, align 4
  store i32 1, ptr %9, align 4
  br label %38

38:                                               ; preds = %37, %35
  call void @llvm.lifetime.end.p0(i64 8, ptr %7) #7
  call void @llvm.lifetime.end.p0(i64 8, ptr %6) #7
  %39 = load i32, ptr %3, align 4
  ret i32 %39
}

; Function Attrs: nounwind uwtable
define void @validateControl(ptr noundef byval(%struct.Qureg) align 8 %0, i32 noundef %1, ptr noundef %2) #0 {
  %4 = alloca i32, align 4
  %5 = alloca ptr, align 8
  store i32 %1, ptr %4, align 4, !tbaa !9
  store ptr %2, ptr %5, align 8, !tbaa !4
  %6 = load i32, ptr %4, align 4, !tbaa !9
  %7 = icmp sge i32 %6, 0
  br i1 %7, label %8, label %13

8:                                                ; preds = %3
  %9 = load i32, ptr %4, align 4, !tbaa !9
  %10 = getelementptr inbounds nuw %struct.Qureg, ptr %0, i32 0, i32 1
  %11 = load i32, ptr %10, align 4, !tbaa !40
  %12 = icmp slt i32 %9, %11
  br label %13

13:                                               ; preds = %8, %3
  %14 = phi i1 [ false, %3 ], [ %12, %8 ]
  %15 = zext i1 %14 to i32
  %16 = load ptr, ptr %5, align 8, !tbaa !4
  call void @QuESTAssert(i32 noundef %15, i32 noundef 5, ptr noundef %16)
  ret void
}

; Function Attrs: nounwind uwtable
define void @validateNumControls(ptr noundef byval(%struct.Qureg) align 8 %0, i32 noundef %1, ptr noundef %2) #0 {
  %4 = alloca i32, align 4
  %5 = alloca ptr, align 8
  store i32 %1, ptr %4, align 4, !tbaa !9
  store ptr %2, ptr %5, align 8, !tbaa !4
  %6 = load i32, ptr %4, align 4, !tbaa !9
  %7 = icmp sgt i32 %6, 0
  br i1 %7, label %8, label %13

8:                                                ; preds = %3
  %9 = load i32, ptr %4, align 4, !tbaa !9
  %10 = getelementptr inbounds nuw %struct.Qureg, ptr %0, i32 0, i32 1
  %11 = load i32, ptr %10, align 4, !tbaa !40
  %12 = icmp slt i32 %9, %11
  br label %13

13:                                               ; preds = %8, %3
  %14 = phi i1 [ false, %3 ], [ %12, %8 ]
  %15 = zext i1 %14 to i32
  %16 = load ptr, ptr %5, align 8, !tbaa !4
  call void @QuESTAssert(i32 noundef %15, i32 noundef 21, ptr noundef %16)
  ret void
}

; Function Attrs: nounwind uwtable
define void @QuESTAssert(i32 noundef %0, i32 noundef %1, ptr noundef %2) #0 {
  %4 = alloca i32, align 4
  %5 = alloca i32, align 4
  %6 = alloca ptr, align 8
  store i32 %0, ptr %4, align 4, !tbaa !9
  store i32 %1, ptr %5, align 4, !tbaa !9
  store ptr %2, ptr %6, align 8, !tbaa !4
  %7 = load i32, ptr %4, align 4, !tbaa !9
  %8 = icmp ne i32 %7, 0
  br i1 %8, label %15, label %9

9:                                                ; preds = %3
  %10 = load i32, ptr %5, align 4, !tbaa !9
  %11 = zext i32 %10 to i64
  %12 = getelementptr inbounds nuw [92 x ptr], ptr @errorMessages, i64 0, i64 %11
  %13 = load ptr, ptr %12, align 8, !tbaa !4
  %14 = load ptr, ptr %6, align 8, !tbaa !4
  call void @invalidQuESTInputError(ptr noundef %13, ptr noundef %14)
  br label %15

15:                                               ; preds = %9, %3
  ret void
}

; Function Attrs: nounwind uwtable
define void @validateMultiControls(ptr noundef byval(%struct.Qureg) align 8 %0, ptr noundef %1, i32 noundef %2, ptr noundef %3) #0 {
  %5 = alloca ptr, align 8
  %6 = alloca i32, align 4
  %7 = alloca ptr, align 8
  %8 = alloca i32, align 4
  store ptr %1, ptr %5, align 8, !tbaa !30
  store i32 %2, ptr %6, align 4, !tbaa !9
  store ptr %3, ptr %7, align 8, !tbaa !4
  %9 = load i32, ptr %6, align 4, !tbaa !9
  %10 = load ptr, ptr %7, align 8, !tbaa !4
  call void @validateNumControls(ptr noundef byval(%struct.Qureg) align 8 %0, i32 noundef %9, ptr noundef %10)
  call void @llvm.lifetime.start.p0(i64 4, ptr %8) #7
  store i32 0, ptr %8, align 4, !tbaa !9
  br label %11

11:                                               ; preds = %23, %4
  %12 = load i32, ptr %8, align 4, !tbaa !9
  %13 = load i32, ptr %6, align 4, !tbaa !9
  %14 = icmp slt i32 %12, %13
  br i1 %14, label %16, label %15

15:                                               ; preds = %11
  call void @llvm.lifetime.end.p0(i64 4, ptr %8) #7
  br label %26

16:                                               ; preds = %11
  %17 = load ptr, ptr %5, align 8, !tbaa !30
  %18 = load i32, ptr %8, align 4, !tbaa !9
  %19 = sext i32 %18 to i64
  %20 = getelementptr inbounds i32, ptr %17, i64 %19
  %21 = load i32, ptr %20, align 4, !tbaa !9
  %22 = load ptr, ptr %7, align 8, !tbaa !4
  call void @validateControl(ptr noundef byval(%struct.Qureg) align 8 %0, i32 noundef %21, ptr noundef %22)
  br label %23

23:                                               ; preds = %16
  %24 = load i32, ptr %8, align 4, !tbaa !9
  %25 = add nsw i32 %24, 1
  store i32 %25, ptr %8, align 4, !tbaa !9
  br label %11

26:                                               ; preds = %15
  %27 = load ptr, ptr %5, align 8, !tbaa !30
  %28 = load i32, ptr %6, align 4, !tbaa !9
  %29 = call i32 @areUniqueQubits(ptr noundef %27, i32 noundef %28)
  %30 = load ptr, ptr %7, align 8, !tbaa !4
  call void @QuESTAssert(i32 noundef %29, i32 noundef 18, ptr noundef %30)
  ret void
}

; Function Attrs: nounwind uwtable
define void @validateTarget(ptr noundef byval(%struct.Qureg) align 8 %0, i32 noundef %1, ptr noundef %2) #0 {
  %4 = alloca i32, align 4
  %5 = alloca ptr, align 8
  store i32 %1, ptr %4, align 4, !tbaa !9
  store ptr %2, ptr %5, align 8, !tbaa !4
  %6 = load i32, ptr %4, align 4, !tbaa !9
  %7 = icmp sge i32 %6, 0
  br i1 %7, label %8, label %13

8:                                                ; preds = %3
  %9 = load i32, ptr %4, align 4, !tbaa !9
  %10 = getelementptr inbounds nuw %struct.Qureg, ptr %0, i32 0, i32 1
  %11 = load i32, ptr %10, align 4, !tbaa !40
  %12 = icmp slt i32 %9, %11
  br label %13

13:                                               ; preds = %8, %3
  %14 = phi i1 [ false, %3 ], [ %12, %8 ]
  %15 = zext i1 %14 to i32
  %16 = load ptr, ptr %5, align 8, !tbaa !4
  call void @QuESTAssert(i32 noundef %15, i32 noundef 4, ptr noundef %16)
  ret void
}

; Function Attrs: nounwind uwtable
define void @validateMultiControlsTarget(ptr noundef byval(%struct.Qureg) align 8 %0, ptr noundef %1, i32 noundef %2, i32 noundef %3, ptr noundef %4) #0 {
  %6 = alloca ptr, align 8
  %7 = alloca i32, align 4
  %8 = alloca i32, align 4
  %9 = alloca ptr, align 8
  %10 = alloca i32, align 4
  store ptr %1, ptr %6, align 8, !tbaa !30
  store i32 %2, ptr %7, align 4, !tbaa !9
  store i32 %3, ptr %8, align 4, !tbaa !9
  store ptr %4, ptr %9, align 8, !tbaa !4
  %11 = load i32, ptr %8, align 4, !tbaa !9
  %12 = load ptr, ptr %9, align 8, !tbaa !4
  call void @validateTarget(ptr noundef byval(%struct.Qureg) align 8 %0, i32 noundef %11, ptr noundef %12)
  %13 = load ptr, ptr %6, align 8, !tbaa !30
  %14 = load i32, ptr %7, align 4, !tbaa !9
  %15 = load ptr, ptr %9, align 8, !tbaa !4
  call void @validateMultiControls(ptr noundef byval(%struct.Qureg) align 8 %0, ptr noundef %13, i32 noundef %14, ptr noundef %15)
  call void @llvm.lifetime.start.p0(i64 4, ptr %10) #7
  store i32 0, ptr %10, align 4, !tbaa !9
  br label %16

16:                                               ; preds = %31, %5
  %17 = load i32, ptr %10, align 4, !tbaa !9
  %18 = load i32, ptr %7, align 4, !tbaa !9
  %19 = icmp slt i32 %17, %18
  br i1 %19, label %21, label %20

20:                                               ; preds = %16
  call void @llvm.lifetime.end.p0(i64 4, ptr %10) #7
  br label %34

21:                                               ; preds = %16
  %22 = load ptr, ptr %6, align 8, !tbaa !30
  %23 = load i32, ptr %10, align 4, !tbaa !9
  %24 = sext i32 %23 to i64
  %25 = getelementptr inbounds i32, ptr %22, i64 %24
  %26 = load i32, ptr %25, align 4, !tbaa !9
  %27 = load i32, ptr %8, align 4, !tbaa !9
  %28 = icmp ne i32 %26, %27
  %29 = zext i1 %28 to i32
  %30 = load ptr, ptr %9, align 8, !tbaa !4
  call void @QuESTAssert(i32 noundef %29, i32 noundef 14, ptr noundef %30)
  br label %31

31:                                               ; preds = %21
  %32 = load i32, ptr %10, align 4, !tbaa !9
  %33 = add nsw i32 %32, 1
  store i32 %33, ptr %10, align 4, !tbaa !9
  br label %16

34:                                               ; preds = %20
  ret void
}