; Function Attrs: nounwind uwtable
define void @validateMultiControlsTarget(ptr noundef readonly byval(%struct.Qureg) align 8 captures(none) %0, ptr noundef readonly captures(none) %1, i32 noundef %2, i32 noundef %3, ptr noundef %4) local_unnamed_addr #3 {
  %.sroa.3.0..sroa_idx = getelementptr inbounds nuw i8, ptr %0, i64 4
  %.sroa.3.0.copyload = load i32, ptr %.sroa.3.0..sroa_idx, align 4
  %6 = icmp slt i32 %3, 0
  %7 = icmp sge i32 %3, %.sroa.3.0.copyload
  %.not3.i = select i1 %6, i1 true, i1 %7
  br i1 %.not3.i, label %8, label %validateTarget.exit

8:                                                ; preds = %5
  tail call void @invalidQuESTInputError(ptr noundef nonnull @.str.6, ptr noundef %4)
  br label %validateTarget.exit

validateTarget.exit:                              ; preds = %5, %8
  %9 = icmp slt i32 %2, 1
  %10 = icmp sge i32 %2, %.sroa.3.0.copyload
  %.not3.i.i = select i1 %9, i1 true, i1 %10
  br i1 %.not3.i.i, label %validateNumControls.exit.i, label %.lr.ph.preheader.i

validateNumControls.exit.i:                       ; preds = %validateTarget.exit
  tail call void @invalidQuESTInputError(ptr noundef nonnull @.str.23, ptr noundef %4)
  %11 = icmp sgt i32 %2, 0
  br i1 %11, label %.lr.ph.preheader.i, label %._crit_edge

.lr.ph.preheader.i:                               ; preds = %validateNumControls.exit.i, %validateTarget.exit
  %wide.trip.count.i = zext nneg i32 %2 to i64
  br label %.lr.ph.i

._crit_edge.i:                                    ; preds = %validateControl.exit.i
  br i1 %9, label %._crit_edge, label %.lr.ph.i.i

.lr.ph.i.i:                                       ; preds = %._crit_edge.i, %17
  %indvars.iv.i.i = phi i64 [ %indvars.iv.next.i.i, %17 ], [ 0, %._crit_edge.i ]
  %.01215.i.i = phi i64 [ %18, %17 ], [ 0, %._crit_edge.i ]
  %12 = getelementptr inbounds nuw i32, ptr %1, i64 %indvars.iv.i.i
  %13 = load i32, ptr %12, align 4, !tbaa !20
  %14 = zext nneg i32 %13 to i64
  %15 = shl nuw i64 1, %14
  %16 = and i64 %15, %.01215.i.i
  %.not.i.i = icmp eq i64 %16, 0
  br i1 %.not.i.i, label %17, label %areUniqueQubits.exit.i

17:                                               ; preds = %.lr.ph.i.i
  %18 = or i64 %15, %.01215.i.i
  %indvars.iv.next.i.i = add nuw nsw i64 %indvars.iv.i.i, 1
  %exitcond.not.i.i = icmp eq i64 %indvars.iv.next.i.i, %wide.trip.count.i
  br i1 %exitcond.not.i.i, label %.lr.ph.preheader, label %.lr.ph.i.i

areUniqueQubits.exit.i:                           ; preds = %.lr.ph.i.i
  tail call void @invalidQuESTInputError(ptr noundef nonnull @.str.20, ptr noundef %4)
  br label %.lr.ph.preheader

.lr.ph.i:                                         ; preds = %validateControl.exit.i, %.lr.ph.preheader.i
  %indvars.iv.i = phi i64 [ 0, %.lr.ph.preheader.i ], [ %indvars.iv.next.i, %validateControl.exit.i ]
  %19 = getelementptr inbounds nuw i32, ptr %1, i64 %indvars.iv.i
  %20 = load i32, ptr %19, align 4, !tbaa !20
  %21 = icmp slt i32 %20, 0
  %22 = icmp sge i32 %20, %.sroa.3.0.copyload
  %.not3.i12.i = select i1 %21, i1 true, i1 %22
  br i1 %.not3.i12.i, label %23, label %validateControl.exit.i

23:                                               ; preds = %.lr.ph.i
  tail call void @invalidQuESTInputError(ptr noundef nonnull @.str.7, ptr noundef %4)
  br label %validateControl.exit.i

validateControl.exit.i:                           ; preds = %23, %.lr.ph.i
  %indvars.iv.next.i = add nuw nsw i64 %indvars.iv.i, 1
  %exitcond.not.i = icmp eq i64 %indvars.iv.next.i, %wide.trip.count.i
  br i1 %exitcond.not.i, label %._crit_edge.i, label %.lr.ph.i

.lr.ph.preheader:                                 ; preds = %17, %areUniqueQubits.exit.i
  %wide.trip.count = zext nneg i32 %2 to i64
  br label %.lr.ph

._crit_edge:                                      ; preds = %QuESTAssert.exit, %._crit_edge.i, %validateNumControls.exit.i
  ret void

.lr.ph:                                           ; preds = %.lr.ph.preheader, %QuESTAssert.exit
  %indvars.iv = phi i64 [ 0, %.lr.ph.preheader ], [ %indvars.iv.next, %QuESTAssert.exit ]
  %24 = getelementptr inbounds nuw i32, ptr %1, i64 %indvars.iv
  %25 = load i32, ptr %24, align 4, !tbaa !20
  %.not = icmp eq i32 %25, %3
  br i1 %.not, label %26, label %QuESTAssert.exit

26:                                               ; preds = %.lr.ph
  tail call void @invalidQuESTInputError(ptr noundef nonnull @.str.16, ptr noundef %4)
  br label %QuESTAssert.exit

QuESTAssert.exit:                                 ; preds = %.lr.ph, %26
  %indvars.iv.next = add nuw nsw i64 %indvars.iv, 1
  %exitcond.not = icmp eq i64 %indvars.iv.next, %wide.trip.count
  br i1 %exitcond.not, label %._crit_edge, label %.lr.ph
}